Certificate:
    Data:
        Version: 3 (0x2)
        Serial Number: 27 (0x1b)
    Signature Algorithm: sha256WithRSAEncryption
        Issuer: C=US, ST=Texas, L=Austin, O=LinuxForHealth, OU=HealthOS, CN=linuxforhealth.org/emailAddress=info@linuxforhealth.org
        Validity
            Not Before: Dec  1 17:43:57 2020 GMT
            Not After : Aug 28 17:43:57 2023 GMT
        Subject: C=US, ST=Texas, L=Austin, O=LinuxForHealth, OU=HealthOS, CN=linuxforhealth.org
        Subject Public Key Info:
            Public Key Algorithm: rsaEncryption
                Public-Key: (2048 bit)
                Modulus:
                    00:cf:91:f9:b6:fc:93:93:81:81:1f:0e:b7:67:7d:
                    c5:68:45:82:19:91:ae:14:d0:63:03:de:10:52:1e:
                    32:bb:ad:65:0d:38:fe:2e:db:3b:fd:49:1c:44:8d:
                    c4:19:7f:75:e6:ec:5c:57:a6:cb:88:35:2b:17:8f:
                    ea:68:25:f2:d1:c0:46:60:af:3a:ed:88:12:26:69:
                    30:68:3c:2d:95:7d:26:6c:54:65:83:bc:2f:23:e0:
                    28:f0:c6:7c:55:a9:92:8f:5f:3e:52:04:4d:48:6d:
                    be:b9:ac:91:ee:45:6e:5c:0f:36:e2:6a:41:3b:3a:
                    d9:c3:6d:f9:81:06:ab:8e:5d:53:1b:58:20:f0:06:
                    cd:29:e4:b5:34:1b:38:79:ac:84:62:f2:31:4a:f9:
                    43:cb:de:c4:00:af:e5:e4:d4:f5:f4:44:14:ee:3d:
                    8a:51:6e:96:2d:e2:ac:22:de:27:08:01:22:fa:41:
                    50:79:66:e6:5d:ff:e6:51:c2:f0:91:4f:74:90:01:
                    99:5a:d1:94:f3:f4:ff:ee:ea:8a:25:ff:cd:fb:84:
                    e3:5a:ce:2d:93:04:51:13:01:5c:db:42:a5:f1:c0:
                    b7:79:7f:95:a5:ab:b5:93:08:00:96:a0:4f:15:1e:
                    51:18:3c:fb:2d:39:ef:30:8b:d6:b8:86:28:29:86:
                    0a:0f
                Exponent: 65537 (0x10001)
        X509v3 extensions:
            X509v3 Subject Key Identifier: 
                73:49:1C:0A:E7:F3:4C:2A:CF:BD:FE:F0:96:2D:56:1A:F3:E7:FD:38
            X509v3 Authority Key Identifier: 
                keyid:C5:2C:ED:BA:36:FC:E7:73:93:5D:C3:8F:92:28:D2:1C:F3:90:2F:A5

            X509v3 Basic Constraints: 
                CA:FALSE
            X509v3 Key Usage: 
                Digital Signature, Key Encipherment
            Netscape Comment: 
                OpenSSL Generated Certificate
            X509v3 Extended Key Usage: 
                TLS Web Client Authentication, TLS Web Server Authentication
            X509v3 Subject Alternative Name: 
                IP Address:127.0.0.1, IP Address:172.18.0.4, DNS:localhost, DNS:nats-server, DNS:compose_nats-server_1
    Signature Algorithm: sha256WithRSAEncryption
         48:bd:d9:7d:a6:fc:28:0a:6b:8c:81:33:70:46:48:30:9c:9e:
         10:de:2a:20:37:2c:e4:0b:3a:78:e8:c9:a5:dc:00:69:0a:8c:
         a9:d2:62:b8:5c:e8:b9:76:f6:67:a2:e0:cc:4b:8f:ee:82:43:
         12:6c:6a:07:f2:fe:e3:86:da:63:f2:38:16:1f:7f:07:09:b6:
         7b:00:76:89:11:13:d8:1b:d7:e1:1a:0d:72:7b:47:3c:17:1a:
         27:de:e9:03:79:3b:2d:e4:27:dc:a3:c5:35:0c:73:69:89:b1:
         ac:fd:9a:63:cc:d9:fe:41:4f:3a:dc:6d:2b:50:f6:7c:db:b1:
         5f:8d:ec:dd:b8:a9:47:2b:33:35:5c:3f:41:d4:d7:80:30:a9:
         e3:6b:6d:7f:de:c7:5a:55:fa:3b:38:d6:ff:ae:73:88:30:cb:
         09:1d:d2:0c:3b:70:d9:5d:f4:ba:7c:d2:f8:87:55:bd:f7:c6:
         7c:13:79:7a:50:2d:c4:e1:0e:97:71:c9:19:92:14:98:0d:c8:
         b5:ae:bb:d2:81:4c:05:c1:dc:63:a1:49:59:2b:4f:15:43:08:
         8e:5a:d1:27:0e:87:2b:47:b5:0f:c4:e5:da:89:b8:c0:5e:52:
         3f:4c:26:b7:38:9f:cc:e5:d5:c5:a5:b1:e5:e3:3a:30:a6:c9:
         11:7c:06:b7:4e:89:ee:44:96:cb:1a:91:bd:25:54:54:65:6d:
         25:4d:7b:57:6a:95:3d:e9:eb:24:53:8a:48:a3:15:f4:6c:99:
         d1:f4:60:9d:18:98:92:21:fa:de:44:d8:3d:f9:c4:f8:d8:69:
         9d:24:83:ec:3b:d4:d4:31:2d:8f:a8:61:43:c0:b2:88:5d:22:
         e1:bd:1f:f5:e2:4a:0a:ec:ad:f1:86:9b:75:a1:13:fc:cf:21:
         a4:b5:de:81:9d:dd:03:b5:b9:15:2d:25:7e:e1:93:54:50:ce:
         2f:68:8d:92:79:24:2c:c1:62:b0:42:fc:4b:80:d9:d9:5d:b3:
         bf:08:13:87:2a:24:68:5e:7f:81:3d:85:36:4b:d3:a1:26:12:
         ab:1f:c2:84:f4:af:80:b6:50:ba:ca:09:4c:39:38:dd:88:56:
         bc:15:29:64:4a:dd:68:b5:72:86:4e:32:27:a2:51:dd:ae:64:
         01:65:c7:24:9c:96:c9:fa:79:64:55:56:7c:f0:c2:32:6d:71:
         55:05:48:9d:dc:f6:74:eb:60:55:8d:31:bc:8e:55:49:33:5e:
         6e:51:6d:06:61:2c:33:3e:6c:89:1d:63:ef:ec:bd:bf:24:cf:
         8b:d0:0f:83:ad:80:fe:f3:5e:7e:5d:88:e3:fb:5a:ee:9b:ad:
         df:d7:0e:a4:3c:df:6a:b9
-----BEGIN CERTIFICATE-----
MIIFgTCCA2mgAwIBAgIBGzANBgkqhkiG9w0BAQsFADCBnzELMAkGA1UEBhMCVVMx
DjAMBgNVBAgMBVRleGFzMQ8wDQYDVQQHDAZBdXN0aW4xFzAVBgNVBAoMDkxpbnV4
Rm9ySGVhbHRoMREwDwYDVQQLDAhIZWFsdGhPUzEbMBkGA1UEAwwSbGludXhmb3Jo
ZWFsdGgub3JnMSYwJAYJKoZIhvcNAQkBFhdpbmZvQGxpbnV4Zm9yaGVhbHRoLm9y
ZzAeFw0yMDEyMDExNzQzNTdaFw0yMzA4MjgxNzQzNTdaMHcxCzAJBgNVBAYTAlVT
MQ4wDAYDVQQIDAVUZXhhczEPMA0GA1UEBwwGQXVzdGluMRcwFQYDVQQKDA5MaW51
eEZvckhlYWx0aDERMA8GA1UECwwISGVhbHRoT1MxGzAZBgNVBAMMEmxpbnV4Zm9y
aGVhbHRoLm9yZzCCASIwDQYJKoZIhvcNAQEBBQADggEPADCCAQoCggEBAM+R+bb8
k5OBgR8Ot2d9xWhFghmRrhTQYwPeEFIeMrutZQ04/i7bO/1JHESNxBl/debsXFem
y4g1KxeP6mgl8tHARmCvOu2IEiZpMGg8LZV9JmxUZYO8LyPgKPDGfFWpko9fPlIE
TUhtvrmske5FblwPNuJqQTs62cNt+YEGq45dUxtYIPAGzSnktTQbOHmshGLyMUr5
Q8vexACv5eTU9fREFO49ilFuli3irCLeJwgBIvpBUHlm5l3/5lHC8JFPdJABmVrR
lPP0/+7qiiX/zfuE41rOLZMEURMBXNtCpfHAt3l/laWrtZMIAJagTxUeURg8+y05
7zCL1riGKCmGCg8CAwEAAaOB7jCB6zAdBgNVHQ4EFgQUc0kcCufzTCrPvf7wli1W
GvPn/TgwHwYDVR0jBBgwFoAUxSztujb853OTXcOPkijSHPOQL6UwCQYDVR0TBAIw
ADALBgNVHQ8EBAMCBaAwLAYJYIZIAYb4QgENBB8WHU9wZW5TU0wgR2VuZXJhdGVk
IENlcnRpZmljYXRlMB0GA1UdJQQWMBQGCCsGAQUFBwMCBggrBgEFBQcDATBEBgNV
HREEPTA7hwR/AAABhwSsEgAEgglsb2NhbGhvc3SCC25hdHMtc2VydmVyghVjb21w
b3NlX25hdHMtc2VydmVyXzEwDQYJKoZIhvcNAQELBQADggIBAEi92X2m/CgKa4yB
M3BGSDCcnhDeKiA3LOQLOnjoyaXcAGkKjKnSYrhc6Ll29mei4MxLj+6CQxJsagfy
/uOG2mPyOBYffwcJtnsAdokRE9gb1+EaDXJ7RzwXGife6QN5Oy3kJ9yjxTUMc2mJ
saz9mmPM2f5BTzrcbStQ9nzbsV+N7N24qUcrMzVcP0HU14AwqeNrbX/ex1pV+js4
1v+uc4gwywkd0gw7cNld9Lp80viHVb33xnwTeXpQLcThDpdxyRmSFJgNyLWuu9KB
TAXB3GOhSVkrTxVDCI5a0ScOhytHtQ/E5dqJuMBeUj9MJrc4n8zl1cWlseXjOjCm
yRF8BrdOie5Elssakb0lVFRlbSVNe1dqlT3p6yRTikijFfRsmdH0YJ0YmJIh+t5E
2D35xPjYaZ0kg+w71NQxLY+oYUPAsohdIuG9H/XiSgrsrfGGm3WhE/zPIaS13oGd
3QO1uRUtJX7hk1RQzi9ojZJ5JCzBYrBC/EuA2dlds78IE4cqJGhef4E9hTZL06Em
EqsfwoT0r4C2ULrKCUw5ON2IVrwVKWRK3Wi1coZOMieiUd2uZAFlxySclsn6eWRV
VnzwwjJtcVUFSJ3c9nTrYFWNMbyOVUkzXm5RbQZhLDM+bIkdY+/svb8kz4vQD4Ot
gP7zXn5diOP7Wu6brd/XDqQ832q5
-----END CERTIFICATE-----
