Certificate:
    Data:
        Version: 3 (0x2)
        Serial Number: 30 (0x1e)
    Signature Algorithm: sha256WithRSAEncryption
        Issuer: C=US, ST=Texas, L=Austin, O=LinuxForHealth, OU=HealthOS, CN=linuxforhealth.org/emailAddress=info@linuxforhealth.org
        Validity
            Not Before: Dec  2 16:14:01 2020 GMT
            Not After : Aug 29 16:14:01 2023 GMT
        Subject: C=US, ST=Texas, L=Austin, O=LinuxForHealth, OU=HealthOS, CN=linuxforhealth.org
        Subject Public Key Info:
            Public Key Algorithm: rsaEncryption
                Public-Key: (2048 bit)
                Modulus:
                    00:be:5b:80:11:a1:29:dc:55:21:9e:bb:cd:11:3b:
                    ee:1a:5a:3e:99:f6:0f:77:5d:74:e5:e9:31:e9:e9:
                    7c:ea:ee:0d:74:da:32:f1:c3:2a:a0:52:3c:fb:e5:
                    21:ce:b0:d7:fc:bb:c2:b3:c9:50:8c:03:48:61:21:
                    8b:a1:ef:2d:33:b2:f7:41:13:60:e2:5f:61:12:41:
                    45:dc:5f:a8:cb:96:69:af:ca:d1:0b:91:4e:f9:35:
                    ed:e7:32:a6:87:09:4a:26:ec:4f:32:78:a4:fb:92:
                    c4:90:af:51:f1:3b:85:8b:0e:61:0a:66:af:18:39:
                    a3:c2:2b:e9:73:fe:1c:8e:12:b8:9f:26:aa:b6:2c:
                    cc:bd:2e:96:8b:f0:18:b8:5c:0f:c0:f5:0f:f8:82:
                    b3:53:fe:76:85:51:ae:ac:8e:01:e1:98:9d:ee:20:
                    ad:49:ac:25:be:15:e0:66:23:22:5f:d0:8d:65:d1:
                    5c:06:6a:9e:6a:52:14:45:8c:07:b9:16:3f:40:a3:
                    f7:03:bb:c9:19:05:b5:a6:8c:3b:db:f4:1a:e8:1f:
                    7e:79:f9:de:96:3d:26:51:85:89:63:57:4a:56:46:
                    69:1c:e4:38:d3:36:42:c3:2e:6f:20:40:7b:35:72:
                    24:4a:ac:1c:00:d1:d5:05:b0:1c:1c:36:5b:41:9b:
                    ad:d9
                Exponent: 65537 (0x10001)
        X509v3 extensions:
            X509v3 Subject Key Identifier: 
                93:E0:D7:B2:54:03:EF:EB:C5:08:D4:70:C7:10:72:F2:6D:44:76:61
            X509v3 Authority Key Identifier: 
                keyid:22:75:B1:88:7D:08:71:6D:98:A5:53:31:5A:A7:53:39:A9:EE:71:03

            X509v3 Basic Constraints: 
                CA:FALSE
            X509v3 Key Usage: 
                Digital Signature, Key Encipherment
            Netscape Comment: 
                OpenSSL Generated Certificate
            X509v3 Extended Key Usage: 
                TLS Web Client Authentication, TLS Web Server Authentication
            X509v3 Subject Alternative Name: 
                IP Address:127.0.0.1, IP Address:172.18.0.4, DNS:localhost, DNS:nats-server, DNS:compose_nats-server_1
    Signature Algorithm: sha256WithRSAEncryption
         32:35:1e:0d:0b:91:14:14:0c:ad:d0:36:e4:a2:42:63:70:0a:
         7e:54:71:ac:fa:de:f9:4b:86:44:81:24:9a:2c:2c:33:ac:04:
         bd:dd:79:74:d5:dc:5d:19:34:b2:cf:8f:c9:9b:3c:9c:ae:25:
         2e:d4:a8:49:b2:db:a4:00:7a:51:65:1b:51:a3:4c:3f:e9:ff:
         67:29:6f:6c:75:dc:29:57:b5:fd:12:9e:3b:4e:a2:eb:35:4e:
         8c:84:28:c8:99:49:20:7b:c0:01:e3:4a:60:eb:34:14:d9:a7:
         4a:e7:6e:ee:70:98:90:1b:8f:0c:35:79:5f:e3:00:ae:19:cc:
         2a:db:06:49:d9:7b:06:7f:33:39:7f:49:bf:9c:96:26:0c:2e:
         f9:0a:02:cb:34:10:0e:b7:7c:7c:31:a6:0b:06:d1:ec:26:98:
         d6:ec:a1:e8:ff:25:d6:f8:f1:4d:c7:df:8c:d9:dc:3d:99:af:
         42:d3:ac:04:ea:94:7d:dd:1f:5f:2f:62:d4:d1:ff:73:fd:0e:
         00:b4:29:00:08:01:b2:59:72:5d:0f:f0:8b:d0:8e:72:85:3f:
         95:90:3f:7f:5f:c2:8f:65:3c:8d:4e:6a:40:f4:db:29:01:3f:
         8b:b3:ec:89:96:59:11:e2:46:8b:22:04:65:b1:fd:02:fe:fe:
         6a:49:95:6e:3b:c1:73:a9:91:7a:fd:1b:da:51:79:00:db:71:
         bc:7b:6f:8e:57:3d:1e:d8:29:46:67:83:05:85:2b:a4:6f:d5:
         1f:94:6e:67:8d:75:ab:50:87:8e:26:b8:5e:6b:65:cc:51:88:
         40:a3:a0:69:e8:ee:bb:af:9f:22:65:0c:a2:ee:69:6b:39:fc:
         a8:6b:e0:21:f8:d6:4a:60:a7:de:d2:f3:fc:7a:54:7d:16:80:
         70:73:79:c8:84:d4:9e:e6:13:7b:7e:9b:c9:c9:77:23:f8:41:
         6e:02:66:7f:b9:6f:7f:c0:46:2e:a0:3e:7b:8a:4f:5c:98:59:
         85:31:76:b0:fc:5f:77:4f:77:f8:0a:e0:2d:90:3f:99:cc:23:
         8a:28:61:d3:87:73:c9:b5:cc:59:b4:a7:5f:d2:5c:b6:bc:2d:
         d0:d2:17:24:6e:a5:c2:2c:61:a4:82:55:bf:c8:1f:8a:87:b8:
         9a:69:24:13:fb:5d:52:cd:df:3a:70:6a:60:f4:9e:40:63:34:
         9f:27:46:8b:8d:44:54:54:51:52:e1:96:67:93:c7:be:51:b8:
         a8:e0:83:2b:75:41:8e:98:81:47:ce:f2:7c:f1:e6:8c:e2:f8:
         b0:d3:c8:fe:97:c9:a3:89:c0:c7:c5:30:5f:98:13:a8:b4:57:
         5e:b8:66:3b:c4:82:a6:1a
-----BEGIN CERTIFICATE-----
MIIFgTCCA2mgAwIBAgIBHjANBgkqhkiG9w0BAQsFADCBnzELMAkGA1UEBhMCVVMx
DjAMBgNVBAgMBVRleGFzMQ8wDQYDVQQHDAZBdXN0aW4xFzAVBgNVBAoMDkxpbnV4
Rm9ySGVhbHRoMREwDwYDVQQLDAhIZWFsdGhPUzEbMBkGA1UEAwwSbGludXhmb3Jo
ZWFsdGgub3JnMSYwJAYJKoZIhvcNAQkBFhdpbmZvQGxpbnV4Zm9yaGVhbHRoLm9y
ZzAeFw0yMDEyMDIxNjE0MDFaFw0yMzA4MjkxNjE0MDFaMHcxCzAJBgNVBAYTAlVT
MQ4wDAYDVQQIDAVUZXhhczEPMA0GA1UEBwwGQXVzdGluMRcwFQYDVQQKDA5MaW51
eEZvckhlYWx0aDERMA8GA1UECwwISGVhbHRoT1MxGzAZBgNVBAMMEmxpbnV4Zm9y
aGVhbHRoLm9yZzCCASIwDQYJKoZIhvcNAQEBBQADggEPADCCAQoCggEBAL5bgBGh
KdxVIZ67zRE77hpaPpn2D3dddOXpMenpfOruDXTaMvHDKqBSPPvlIc6w1/y7wrPJ
UIwDSGEhi6HvLTOy90ETYOJfYRJBRdxfqMuWaa/K0QuRTvk17ecypocJSibsTzJ4
pPuSxJCvUfE7hYsOYQpmrxg5o8Ir6XP+HI4SuJ8mqrYszL0ulovwGLhcD8D1D/iC
s1P+doVRrqyOAeGYne4grUmsJb4V4GYjIl/QjWXRXAZqnmpSFEWMB7kWP0Cj9wO7
yRkFtaaMO9v0Gugffnn53pY9JlGFiWNXSlZGaRzkONM2QsMubyBAezVyJEqsHADR
1QWwHBw2W0GbrdkCAwEAAaOB7jCB6zAdBgNVHQ4EFgQUk+DXslQD7+vFCNRwxxBy
8m1EdmEwHwYDVR0jBBgwFoAUInWxiH0IcW2YpVMxWqdTOanucQMwCQYDVR0TBAIw
ADALBgNVHQ8EBAMCBaAwLAYJYIZIAYb4QgENBB8WHU9wZW5TU0wgR2VuZXJhdGVk
IENlcnRpZmljYXRlMB0GA1UdJQQWMBQGCCsGAQUFBwMCBggrBgEFBQcDATBEBgNV
HREEPTA7hwR/AAABhwSsEgAEgglsb2NhbGhvc3SCC25hdHMtc2VydmVyghVjb21w
b3NlX25hdHMtc2VydmVyXzEwDQYJKoZIhvcNAQELBQADggIBADI1Hg0LkRQUDK3Q
NuSiQmNwCn5Ucaz63vlLhkSBJJosLDOsBL3deXTV3F0ZNLLPj8mbPJyuJS7UqEmy
26QAelFlG1GjTD/p/2cpb2x13ClXtf0SnjtOous1ToyEKMiZSSB7wAHjSmDrNBTZ
p0rnbu5wmJAbjww1eV/jAK4ZzCrbBknZewZ/Mzl/Sb+cliYMLvkKAss0EA63fHwx
pgsG0ewmmNbsoej/Jdb48U3H34zZ3D2Zr0LTrATqlH3dH18vYtTR/3P9DgC0KQAI
AbJZcl0P8IvQjnKFP5WQP39fwo9lPI1OakD02ykBP4uz7ImWWRHiRosiBGWx/QL+
/mpJlW47wXOpkXr9G9pReQDbcbx7b45XPR7YKUZngwWFK6Rv1R+UbmeNdatQh44m
uF5rZcxRiECjoGno7ruvnyJlDKLuaWs5/Khr4CH41kpgp97S8/x6VH0WgHBzeciE
1J7mE3t+m8nJdyP4QW4CZn+5b3/ARi6gPnuKT1yYWYUxdrD8X3dPd/gK4C2QP5nM
I4ooYdOHc8m1zFm0p1/SXLa8LdDSFyRupcIsYaSCVb/IH4qHuJppJBP7XVLN3zpw
amD0nkBjNJ8nRouNRFRUUVLhlmeTx75RuKjggyt1QY6YgUfO8nzx5ozi+LDTyP6X
yaOJwMfFMF+YE6i0V164ZjvEgqYa
-----END CERTIFICATE-----
