Certificate:
    Data:
        Version: 3 (0x2)
        Serial Number: 7 (0x7)
    Signature Algorithm: sha256WithRSAEncryption
        Issuer: C=US, ST=Texas, L=Austin, O=LinuxForHealth, OU=HealthOS, CN=linuxforhealth.org/emailAddress=info@linuxforhealth.org
        Validity
            Not Before: Nov 30 17:16:09 2020 GMT
            Not After : Aug 27 17:16:09 2023 GMT
        Subject: C=US, ST=Texas, L=Austin, O=LinuxForHealth, OU=HealthOS, CN=linuxforhealth.org
        Subject Public Key Info:
            Public Key Algorithm: rsaEncryption
                Public-Key: (2048 bit)
                Modulus:
                    00:bc:c2:17:17:c4:77:e1:96:e8:bf:51:8a:be:25:
                    84:b6:7e:ca:dd:6f:bb:c6:27:18:a0:bb:24:c3:28:
                    09:6b:b5:78:75:8d:10:78:6b:17:9f:3d:ac:19:2d:
                    0f:fa:39:0d:50:c7:16:bc:de:d4:a1:00:bb:62:f9:
                    79:ed:b8:4d:e3:b5:77:3e:3b:a2:ba:7f:3e:8e:25:
                    3b:9e:48:61:77:fd:a0:93:9e:55:d4:d2:a7:9c:6b:
                    64:b4:87:c7:7b:61:62:c1:80:09:36:0c:e9:22:ad:
                    1e:fd:31:84:85:cc:3b:69:3b:45:1e:55:e8:16:f7:
                    83:c2:7c:6d:d5:60:c5:1f:fd:4c:80:4d:e0:8d:e1:
                    1c:d7:c4:ef:f7:bb:a8:8a:5d:db:60:b5:4f:f2:94:
                    ec:67:c0:5a:b6:6c:58:56:eb:11:ff:61:5b:1c:3a:
                    6a:ef:75:4e:75:ee:18:cd:51:d5:60:28:1d:aa:29:
                    ee:29:df:d9:1e:4c:b5:39:cd:e5:99:1a:85:ce:5a:
                    4f:b4:d2:df:16:d3:95:bf:e3:af:97:dc:aa:a1:9d:
                    b1:33:86:cd:09:4d:a6:a2:76:eb:88:75:65:5c:96:
                    31:96:ae:dd:3c:f3:18:ee:42:91:71:5e:6f:ad:ff:
                    ce:15:d8:41:0c:d2:bf:1d:23:06:ef:ce:22:c8:37:
                    01:f5
                Exponent: 65537 (0x10001)
        X509v3 extensions:
            X509v3 Subject Key Identifier: 
                71:C0:18:FB:43:1B:6D:D8:DC:DC:A0:3C:B8:36:39:18:C7:3E:C7:C8
            X509v3 Authority Key Identifier: 
                keyid:3D:45:C9:68:77:BB:66:75:75:BD:3E:2A:BF:B0:38:DF:B1:CF:7D:25

            X509v3 Basic Constraints: 
                CA:FALSE
            X509v3 Key Usage: 
                Digital Signature, Key Encipherment
            Netscape Comment: 
                OpenSSL Generated Certificate
            X509v3 Extended Key Usage: 
                TLS Web Client Authentication, TLS Web Server Authentication
            X509v3 Subject Alternative Name: 
                IP Address:127.0.0.1, IP Address:0:0:0:0:0:0:0:1, IP Address:172.24.0.4, DNS:localhost, DNS:nats-server, DNS:compose_nats-server_1
    Signature Algorithm: sha256WithRSAEncryption
         01:02:18:1c:06:c0:fe:c9:4e:02:f1:49:32:26:6a:db:fb:48:
         53:b9:6a:6e:b8:10:24:c2:ea:10:91:86:7e:e2:90:8c:87:98:
         60:bd:f6:22:87:be:fc:18:77:ce:d7:36:c5:fa:08:60:ff:50:
         84:42:4f:89:26:db:24:c0:36:8d:e0:9c:d6:c9:01:a5:56:b7:
         8f:dc:51:ff:4a:b0:d0:dd:ce:e6:52:fe:ef:60:b7:47:d0:a0:
         5f:68:7c:d4:bc:7e:9c:90:77:58:3d:6d:ab:4b:77:04:ce:32:
         f5:aa:a7:1c:ed:d0:af:97:fb:20:03:c4:a9:04:62:db:03:d7:
         4a:56:51:11:59:a5:25:a0:db:7a:f8:53:fa:6f:1f:e3:32:1c:
         34:84:41:d6:5c:7f:8e:9b:94:cd:de:58:c9:2f:c1:c1:2f:81:
         86:ea:30:e6:79:49:11:a0:91:6d:6d:12:42:e2:32:66:52:7d:
         0b:76:a3:69:cd:67:0d:bd:c4:ec:76:85:23:23:b5:d7:07:a4:
         e1:fb:36:a0:5d:bb:cd:2a:0d:fe:4a:58:45:27:23:92:b2:d7:
         91:15:53:43:29:3a:5c:a0:f2:a0:8c:bb:b5:02:66:e6:34:a1:
         a0:73:30:c9:8d:65:eb:01:ad:85:52:24:89:d3:c7:72:4d:e5:
         ac:37:01:69:9b:c4:ea:1f:1f:d2:13:80:15:ff:73:03:6e:1f:
         fd:84:85:1e:48:ef:de:0f:51:d1:36:ae:ad:a9:ef:19:58:12:
         17:8d:58:dc:fb:3a:ed:00:4b:71:0a:6c:cf:1a:c9:18:4d:a5:
         fc:d4:34:8d:2b:18:97:e8:7c:a9:ef:6e:3d:84:5d:45:6c:75:
         54:88:55:94:ad:a7:54:e8:53:d2:d9:32:e5:cb:1b:4b:bb:af:
         a7:f5:26:e2:e9:f9:fe:1d:f6:c8:01:29:c8:4c:31:26:0c:e9:
         bc:9e:a1:34:5b:51:a7:eb:e1:1e:32:e5:46:9e:80:34:d6:42:
         70:fe:bb:d9:35:14:4c:ce:b7:88:c4:ee:2e:d5:d4:76:d1:37:
         20:69:f5:f7:65:ed:cc:92:39:67:e2:40:06:2c:fc:56:20:3c:
         39:77:c5:5d:e7:66:a8:76:77:8f:d0:cf:a5:da:33:69:27:7e:
         4d:f3:0b:98:db:ae:e4:49:f6:92:d0:85:57:59:54:2c:d6:1b:
         ad:01:fd:35:05:04:95:df:a4:08:48:ec:55:22:ee:9d:05:13:
         09:a6:f7:64:9f:32:90:18:0f:81:38:fd:3f:75:e7:1a:69:ea:
         d1:24:d2:c5:56:b6:a0:b0:36:2e:4d:d3:15:66:6c:03:e8:18:
         1d:5b:02:b7:f0:f8:ae:38
-----BEGIN CERTIFICATE-----
MIIFlDCCA3ygAwIBAgIBBzANBgkqhkiG9w0BAQsFADCBnzELMAkGA1UEBhMCVVMx
DjAMBgNVBAgMBVRleGFzMQ8wDQYDVQQHDAZBdXN0aW4xFzAVBgNVBAoMDkxpbnV4
Rm9ySGVhbHRoMREwDwYDVQQLDAhIZWFsdGhPUzEbMBkGA1UEAwwSbGludXhmb3Jo
ZWFsdGgub3JnMSYwJAYJKoZIhvcNAQkBFhdpbmZvQGxpbnV4Zm9yaGVhbHRoLm9y
ZzAeFw0yMDExMzAxNzE2MDlaFw0yMzA4MjcxNzE2MDlaMHcxCzAJBgNVBAYTAlVT
MQ4wDAYDVQQIDAVUZXhhczEPMA0GA1UEBwwGQXVzdGluMRcwFQYDVQQKDA5MaW51
eEZvckhlYWx0aDERMA8GA1UECwwISGVhbHRoT1MxGzAZBgNVBAMMEmxpbnV4Zm9y
aGVhbHRoLm9yZzCCASIwDQYJKoZIhvcNAQEBBQADggEPADCCAQoCggEBALzCFxfE
d+GW6L9Rir4lhLZ+yt1vu8YnGKC7JMMoCWu1eHWNEHhrF589rBktD/o5DVDHFrze
1KEAu2L5ee24TeO1dz47orp/Po4lO55IYXf9oJOeVdTSp5xrZLSHx3thYsGACTYM
6SKtHv0xhIXMO2k7RR5V6Bb3g8J8bdVgxR/9TIBN4I3hHNfE7/e7qIpd22C1T/KU
7GfAWrZsWFbrEf9hWxw6au91TnXuGM1R1WAoHaop7inf2R5MtTnN5Zkahc5aT7TS
3xbTlb/jr5fcqqGdsTOGzQlNpqJ264h1ZVyWMZau3TzzGO5CkXFeb63/zhXYQQzS
vx0jBu/OIsg3AfUCAwEAAaOCAQAwgf0wHQYDVR0OBBYEFHHAGPtDG23Y3NygPLg2
ORjHPsfIMB8GA1UdIwQYMBaAFD1FyWh3u2Z1db0+Kr+wON+xz30lMAkGA1UdEwQC
MAAwCwYDVR0PBAQDAgWgMCwGCWCGSAGG+EIBDQQfFh1PcGVuU1NMIEdlbmVyYXRl
ZCBDZXJ0aWZpY2F0ZTAdBgNVHSUEFjAUBggrBgEFBQcDAgYIKwYBBQUHAwEwVgYD
VR0RBE8wTYcEfwAAAYcQAAAAAAAAAAAAAAAAAAAAAYcErBgABIIJbG9jYWxob3N0
ggtuYXRzLXNlcnZlcoIVY29tcG9zZV9uYXRzLXNlcnZlcl8xMA0GCSqGSIb3DQEB
CwUAA4ICAQABAhgcBsD+yU4C8UkyJmrb+0hTuWpuuBAkwuoQkYZ+4pCMh5hgvfYi
h778GHfO1zbF+ghg/1CEQk+JJtskwDaN4JzWyQGlVreP3FH/SrDQ3c7mUv7vYLdH
0KBfaHzUvH6ckHdYPW2rS3cEzjL1qqcc7dCvl/sgA8SpBGLbA9dKVlERWaUloNt6
+FP6bx/jMhw0hEHWXH+Om5TN3ljJL8HBL4GG6jDmeUkRoJFtbRJC4jJmUn0LdqNp
zWcNvcTsdoUjI7XXB6Th+zagXbvNKg3+SlhFJyOSsteRFVNDKTpcoPKgjLu1Ambm
NKGgczDJjWXrAa2FUiSJ08dyTeWsNwFpm8TqHx/SE4AV/3MDbh/9hIUeSO/eD1HR
Nq6tqe8ZWBIXjVjc+zrtAEtxCmzPGskYTaX81DSNKxiX6Hyp7249hF1FbHVUiFWU
radU6FPS2TLlyxtLu6+n9Sbi6fn+HfbIASnITDEmDOm8nqE0W1Gn6+EeMuVGnoA0
1kJw/rvZNRRMzreIxO4u1dR20TcgafX3Ze3Mkjln4kAGLPxWIDw5d8Vd52aodneP
0M+l2jNpJ35N8wuY267kSfaS0IVXWVQs1hutAf01BQSV36QISOxVIu6dBRMJpvdk
nzKQGA+BOP0/decaaerRJNLFVragsDYuTdMVZmwD6BgdWwK38PiuOA==
-----END CERTIFICATE-----
