Certificate:
    Data:
        Version: 3 (0x2)
        Serial Number: 28 (0x1c)
    Signature Algorithm: sha256WithRSAEncryption
        Issuer: C=US, ST=Texas, L=Austin, O=LinuxForHealth, OU=HealthOS, CN=linuxforhealth.org/emailAddress=info@linuxforhealth.org
        Validity
            Not Before: Dec  1 17:43:57 2020 GMT
            Not After : Aug 28 17:43:57 2023 GMT
        Subject: C=US, ST=Texas, L=Austin, O=LinuxForHealth, OU=HealthOS, CN=linuxforhealth.org
        Subject Public Key Info:
            Public Key Algorithm: rsaEncryption
                Public-Key: (2048 bit)
                Modulus:
                    00:c8:b0:91:52:5e:09:b1:3b:e4:25:4a:30:c2:05:
                    ec:61:fa:1e:f9:31:8e:d3:5e:a4:6e:80:45:64:bb:
                    f2:bb:35:d0:c8:dd:40:a4:46:33:75:e7:e8:2b:3d:
                    cf:83:d7:06:0d:f3:16:a5:e6:a6:ea:7d:71:69:1b:
                    e3:86:61:25:df:b1:75:23:22:07:28:61:0c:12:a2:
                    af:a1:f5:55:7c:1a:27:80:1a:6f:56:22:f9:e7:cd:
                    41:4b:06:90:56:c9:6e:d5:e4:3a:03:d9:4a:b0:76:
                    03:ae:e5:2e:8e:93:d5:5e:8b:a2:01:c9:e8:cd:19:
                    2a:6d:0f:a0:58:fd:1b:30:77:08:9e:a5:7e:a8:2c:
                    fc:18:07:29:c6:9f:31:d0:02:fd:83:9e:d2:3a:c0:
                    e6:f0:02:84:02:7b:af:ed:88:52:95:90:3d:00:fa:
                    fe:42:cd:a2:ad:fd:d8:e1:09:dd:a5:da:aa:ba:7f:
                    4c:11:ec:d0:a8:08:b1:b0:b0:8e:b2:8b:5a:75:2f:
                    ba:e5:03:14:f5:96:5b:67:b1:9d:24:36:c2:d6:ca:
                    c4:25:db:2b:33:28:22:33:fa:1c:95:f9:63:9e:77:
                    28:85:74:ef:1e:f3:fa:d7:9a:06:ea:b3:e0:f4:85:
                    b5:4a:3f:4f:3a:3d:98:43:04:e2:a0:8a:02:a1:81:
                    12:35
                Exponent: 65537 (0x10001)
        X509v3 extensions:
            X509v3 Subject Key Identifier: 
                05:D8:CD:CA:70:7C:7F:96:40:9A:D1:82:70:B0:89:81:DE:A5:1D:F7
            X509v3 Authority Key Identifier: 
                keyid:C5:2C:ED:BA:36:FC:E7:73:93:5D:C3:8F:92:28:D2:1C:F3:90:2F:A5

            X509v3 Basic Constraints: 
                CA:FALSE
            X509v3 Key Usage: 
                Digital Signature, Key Encipherment
            Netscape Comment: 
                OpenSSL Generated Certificate
            X509v3 Extended Key Usage: 
                TLS Web Client Authentication, TLS Web Server Authentication
            X509v3 Subject Alternative Name: 
                IP Address:127.0.0.1, IP Address:172.18.0.6, DNS:localhost, DNS:orthanc, DNS:compose_orthanc_1
    Signature Algorithm: sha256WithRSAEncryption
         0e:bb:88:9c:ea:c4:ea:40:e6:c9:bb:78:da:3f:00:a3:5d:fd:
         8c:e6:1f:95:07:58:09:8b:df:a8:04:48:4d:bf:18:2f:e8:64:
         97:8b:59:b6:d9:67:df:14:a5:3e:5c:09:ff:17:27:93:51:88:
         f1:6c:09:18:d9:d0:37:76:3d:bc:b1:d2:52:49:1e:8d:3c:80:
         35:44:fd:80:2c:29:03:a0:e6:04:a3:ba:dd:dd:23:d1:ee:8e:
         54:9a:c9:c5:ae:d6:67:28:03:43:c7:5b:c6:34:f3:3d:40:9a:
         84:82:1b:6c:da:c8:d3:b7:d4:f6:cf:08:c0:a9:3f:47:8a:bf:
         0e:93:ee:64:30:33:f7:3b:ff:ba:23:c1:9f:f6:e2:c8:10:47:
         ae:40:cf:5c:b7:5f:4e:c6:4f:b1:79:dc:00:2e:8e:89:cd:d4:
         9a:7b:78:82:e5:67:cb:52:45:f7:a0:69:f5:a4:60:b8:55:87:
         fd:a0:cc:1d:22:00:e1:a6:8c:c9:33:89:fe:e2:39:e2:d8:f4:
         69:0a:92:78:cf:a0:14:e9:25:c6:bc:01:34:b2:5d:ce:11:39:
         e4:f5:f8:88:ae:96:ea:00:73:c6:56:a4:0c:81:91:17:7d:39:
         44:00:fa:90:a2:6c:b4:25:16:c1:4c:44:48:ec:7b:77:fd:13:
         f2:7e:cc:3c:dd:3a:f3:ce:18:27:ff:fe:ad:50:f1:2c:a6:70:
         53:59:8a:4d:b2:cd:5e:82:6c:e2:79:36:30:db:58:47:76:69:
         63:30:21:2e:1b:81:96:9a:dd:a3:ec:6c:66:fa:7d:37:78:e2:
         ed:11:58:12:d5:42:15:4b:d0:1d:69:2d:be:81:28:54:81:48:
         41:4e:55:0c:e5:70:87:49:48:89:6e:51:69:c8:57:f1:c6:40:
         98:56:fd:e7:9c:11:b4:5f:52:14:92:7f:10:73:65:82:56:65:
         69:b8:73:84:2a:98:80:5d:31:9e:89:44:5b:9b:a8:76:8d:e1:
         55:f0:86:26:34:31:39:88:eb:cc:84:4d:f7:71:0d:84:da:e3:
         a8:6f:19:ad:5d:65:4c:12:17:8d:0d:20:56:24:6e:e8:25:a7:
         cf:d5:da:0d:3b:2e:21:42:7e:a9:d7:23:76:25:d5:0e:d2:15:
         b9:3b:b7:8e:9b:ab:fe:9a:3c:76:2e:63:ad:b3:6b:db:59:6f:
         3a:e8:59:5c:e5:c1:50:67:7c:43:ec:42:df:b8:3e:11:6d:db:
         8a:c4:de:8e:b9:df:18:45:89:d7:8a:da:da:aa:4a:74:58:27:
         5a:67:63:bb:c1:d2:3d:19:22:d5:42:9e:95:7b:b5:0e:58:28:
         09:d2:94:18:75:ae:62:4b
-----BEGIN CERTIFICATE-----
MIIFeTCCA2GgAwIBAgIBHDANBgkqhkiG9w0BAQsFADCBnzELMAkGA1UEBhMCVVMx
DjAMBgNVBAgMBVRleGFzMQ8wDQYDVQQHDAZBdXN0aW4xFzAVBgNVBAoMDkxpbnV4
Rm9ySGVhbHRoMREwDwYDVQQLDAhIZWFsdGhPUzEbMBkGA1UEAwwSbGludXhmb3Jo
ZWFsdGgub3JnMSYwJAYJKoZIhvcNAQkBFhdpbmZvQGxpbnV4Zm9yaGVhbHRoLm9y
ZzAeFw0yMDEyMDExNzQzNTdaFw0yMzA4MjgxNzQzNTdaMHcxCzAJBgNVBAYTAlVT
MQ4wDAYDVQQIDAVUZXhhczEPMA0GA1UEBwwGQXVzdGluMRcwFQYDVQQKDA5MaW51
eEZvckhlYWx0aDERMA8GA1UECwwISGVhbHRoT1MxGzAZBgNVBAMMEmxpbnV4Zm9y
aGVhbHRoLm9yZzCCASIwDQYJKoZIhvcNAQEBBQADggEPADCCAQoCggEBAMiwkVJe
CbE75CVKMMIF7GH6HvkxjtNepG6ARWS78rs10MjdQKRGM3Xn6Cs9z4PXBg3zFqXm
pup9cWkb44ZhJd+xdSMiByhhDBKir6H1VXwaJ4Aab1Yi+efNQUsGkFbJbtXkOgPZ
SrB2A67lLo6T1V6LogHJ6M0ZKm0PoFj9GzB3CJ6lfqgs/BgHKcafMdAC/YOe0jrA
5vAChAJ7r+2IUpWQPQD6/kLNoq392OEJ3aXaqrp/TBHs0KgIsbCwjrKLWnUvuuUD
FPWWW2exnSQ2wtbKxCXbKzMoIjP6HJX5Y553KIV07x7z+teaBuqz4PSFtUo/Tzo9
mEME4qCKAqGBEjUCAwEAAaOB5jCB4zAdBgNVHQ4EFgQUBdjNynB8f5ZAmtGCcLCJ
gd6lHfcwHwYDVR0jBBgwFoAUxSztujb853OTXcOPkijSHPOQL6UwCQYDVR0TBAIw
ADALBgNVHQ8EBAMCBaAwLAYJYIZIAYb4QgENBB8WHU9wZW5TU0wgR2VuZXJhdGVk
IENlcnRpZmljYXRlMB0GA1UdJQQWMBQGCCsGAQUFBwMCBggrBgEFBQcDATA8BgNV
HREENTAzhwR/AAABhwSsEgAGgglsb2NhbGhvc3SCB29ydGhhbmOCEWNvbXBvc2Vf
b3J0aGFuY18xMA0GCSqGSIb3DQEBCwUAA4ICAQAOu4ic6sTqQObJu3jaPwCjXf2M
5h+VB1gJi9+oBEhNvxgv6GSXi1m22WffFKU+XAn/FyeTUYjxbAkY2dA3dj28sdJS
SR6NPIA1RP2ALCkDoOYEo7rd3SPR7o5UmsnFrtZnKANDx1vGNPM9QJqEghts2sjT
t9T2zwjAqT9Hir8Ok+5kMDP3O/+6I8Gf9uLIEEeuQM9ct19Oxk+xedwALo6JzdSa
e3iC5WfLUkX3oGn1pGC4VYf9oMwdIgDhpozJM4n+4jni2PRpCpJ4z6AU6SXGvAE0
sl3OETnk9fiIrpbqAHPGVqQMgZEXfTlEAPqQomy0JRbBTERI7Ht3/RPyfsw83Trz
zhgn//6tUPEspnBTWYpNss1egmzieTYw21hHdmljMCEuG4GWmt2j7Gxm+n03eOLt
EVgS1UIVS9AdaS2+gShUgUhBTlUM5XCHSUiJblFpyFfxxkCYVv3nnBG0X1IUkn8Q
c2WCVmVpuHOEKpiAXTGeiURbm6h2jeFV8IYmNDE5iOvMhE33cQ2E2uOobxmtXWVM
EheNDSBWJG7oJafP1doNOy4hQn6p1yN2JdUO0hW5O7eOm6v+mjx2LmOts2vbWW86
6Flc5cFQZ3xD7ELfuD4RbduKxN6Oud8YRYnXitraqkp0WCdaZ2O7wdI9GSLVQp6V
e7UOWCgJ0pQYda5iSw==
-----END CERTIFICATE-----
