-----BEGIN PRIVATE KEY-----
MIIEwAIBADANBgkqhkiG9w0BAQEFAASCBKowggSmAgEAAoIBAQDwpj0XGaN8Ub1Z
dBb2fp1c31fiKDiaT2kpwYWAiWRk5oWHobcoTDR/bdIBosP6tP6QR7sbKvEEdO5E
s/C5ouoZQwTE0Wt2QZgqClC5zjTfCvn2mXzEI9qQU+QWVJPQgtxkHDvpvt8DBwwm
P6KmJ6WkXIaiSmtD8e6LLAwgNEM63rKLXNMCDJ3A6SpesDxecsqnV6HiFRwEWhHB
Qo9SMsh1Yi+2lv3n2KGDnP99w4zboQywd26TT21PsITLn1cB5Sb4uiOIQxXtcGy6
CamUipdyqZ/zhRGGwfXGtpGx1d1YCWPW8QGM7JjZyz3YbGPf1QziRaIT5W7eC2gx
iSlUSAXZAgMBAAECggEBAMeH3pE/tdkHYStBYSTCOLHfkVu4I652d2iix5Ga2X37
0O1zfYzRGpopsX2fukUuOv/gKdhN04bxePnIBKm21claUyLpzONBYexBn0tgGWBy
Fm2MN/HdFISkujJ1sBWr2xa6fkbB9uDov/8atj50Exhji1IWyDeO6k3EmM0+6Btv
HRr1a0+M5nW1LU8FJ9pnTaSfclVV1nT4mkMAu1kSUQnFGELs846h4VSh09D4TjAK
SfOB8Hu/YLzQye4TCQU3tiZjmkQHixYLjecInQ9z4CcoDP3cT4jhuH4970z8OdwH
lIhGV4l6RhrFDupJXAGYiahHoN/4KZYgoC65Iq6YcoECgYEA+SpZdOplmC4AMQp8
sb1E47mjEd3rAnxm8JZ/xtuJNROU6AitvbpD7LYB9CZlyjNvd4K7mvaKai4U4Nv8
t6A23rtos9VMmXRF4c2+dyTug50SskdJMbOAiCKbSEzZOJ3DH1f6G7O8jxEO4Pm/
T4matwhfYVZ+vpbMsYO8/WVLubECgYEA90AWzMH/bAnxrhrUz1zlGtwstixLGQOD
jc7wtxvH6Q8SvI78bXWCRr93eQ+AZp0EPODUQ3KO5cLOs4Cd5swDVy2bh8swRKN1
wumWTBjt44MC5Ls+AuYglvZ9HIoz3lRwybM7D1OKzjTe0lwlsrGErSUsTqPCEYUk
23US2LsdcKkCgYEAgC5kNPx85WwM1y3Q9lMrRIf0tzVWOEItZunVtESucmqveSs1
zlwro3QCz0qNpRcO6gmMX+0jSfqI7SDfAsxeTflVpOY/cNZbOQ3yRTLvrS+6NZLs
ua/hmKdNAUXfnfuzLMXCukud3m/lGqIA5Hci67RX9ShdLclAZrYiHK3m5hECgYEA
3yGvccoBwHaY7Q65zwl+mObqUt1WSJSrPGbtRdKEbwdzWUeQ9xd9ImvYXiBnODOr
h2U/Kj9QRnmwIL6JwaeLvDkki0ALp2X8+JHlWXeF+DRbgCCarfMQpix8bC0s8hAy
WVSuj/5M3htIm38dZk5d9gP+IFoY4cbOpF7bS0xSHUECgYEAjWS7UsDpTTbpIKhy
xbSiKOK7Uoc0+FsrY121i6ArFJNPRlVFr8qTlQ8Hyld78aRme7fJpXPd5QD0JL9F
CuTNpEbn2b+GcL7DSLR3suKxMBQT2Hlrh7Vma2en8YU0H+gyGo0vlm9So78dYhTb
IcWTGogFpiGq+ZZXQMRU/F8EQmA=
-----END PRIVATE KEY-----
Certificate:
    Data:
        Version: 3 (0x2)
        Serial Number: 8 (0x8)
    Signature Algorithm: sha256WithRSAEncryption
        Issuer: C=US, ST=Texas, L=Austin, O=LinuxForHealth, OU=HealthOS, CN=linuxforhealth.org/emailAddress=info@linuxforhealth.org
        Validity
            Not Before: Nov 30 17:16:09 2020 GMT
            Not After : Aug 27 17:16:09 2023 GMT
        Subject: C=US, ST=Texas, L=Austin, O=LinuxForHealth, OU=HealthOS, CN=linuxforhealth.org
        Subject Public Key Info:
            Public Key Algorithm: rsaEncryption
                Public-Key: (2048 bit)
                Modulus:
                    00:f0:a6:3d:17:19:a3:7c:51:bd:59:74:16:f6:7e:
                    9d:5c:df:57:e2:28:38:9a:4f:69:29:c1:85:80:89:
                    64:64:e6:85:87:a1:b7:28:4c:34:7f:6d:d2:01:a2:
                    c3:fa:b4:fe:90:47:bb:1b:2a:f1:04:74:ee:44:b3:
                    f0:b9:a2:ea:19:43:04:c4:d1:6b:76:41:98:2a:0a:
                    50:b9:ce:34:df:0a:f9:f6:99:7c:c4:23:da:90:53:
                    e4:16:54:93:d0:82:dc:64:1c:3b:e9:be:df:03:07:
                    0c:26:3f:a2:a6:27:a5:a4:5c:86:a2:4a:6b:43:f1:
                    ee:8b:2c:0c:20:34:43:3a:de:b2:8b:5c:d3:02:0c:
                    9d:c0:e9:2a:5e:b0:3c:5e:72:ca:a7:57:a1:e2:15:
                    1c:04:5a:11:c1:42:8f:52:32:c8:75:62:2f:b6:96:
                    fd:e7:d8:a1:83:9c:ff:7d:c3:8c:db:a1:0c:b0:77:
                    6e:93:4f:6d:4f:b0:84:cb:9f:57:01:e5:26:f8:ba:
                    23:88:43:15:ed:70:6c:ba:09:a9:94:8a:97:72:a9:
                    9f:f3:85:11:86:c1:f5:c6:b6:91:b1:d5:dd:58:09:
                    63:d6:f1:01:8c:ec:98:d9:cb:3d:d8:6c:63:df:d5:
                    0c:e2:45:a2:13:e5:6e:de:0b:68:31:89:29:54:48:
                    05:d9
                Exponent: 65537 (0x10001)
        X509v3 extensions:
            X509v3 Subject Key Identifier: 
                5B:8C:3B:32:E9:09:1F:AA:6C:B9:89:F5:8F:AF:A9:27:3B:42:75:D4
            X509v3 Authority Key Identifier: 
                keyid:3D:45:C9:68:77:BB:66:75:75:BD:3E:2A:BF:B0:38:DF:B1:CF:7D:25

            X509v3 Basic Constraints: 
                CA:FALSE
            X509v3 Key Usage: 
                Digital Signature, Key Encipherment
            Netscape Comment: 
                OpenSSL Generated Certificate
            X509v3 Extended Key Usage: 
                TLS Web Client Authentication, TLS Web Server Authentication
            X509v3 Subject Alternative Name: 
                IP Address:127.0.0.1, IP Address:0:0:0:0:0:0:0:1, DNS:localhost
    Signature Algorithm: sha256WithRSAEncryption
         2a:aa:34:46:c7:bb:7c:1a:0c:30:1c:13:07:8d:89:31:84:0b:
         98:26:c0:f3:34:e4:e4:8d:64:60:49:b1:62:c6:e2:65:2d:4f:
         33:b3:39:a4:15:82:49:66:88:cf:34:6e:5b:a1:6f:ce:08:15:
         01:aa:06:45:2d:60:b2:d2:ad:30:ac:0d:52:7e:88:dc:e9:8f:
         48:05:1f:af:d3:19:0f:02:8b:ef:3e:87:c7:15:bc:82:22:a0:
         5d:74:c6:57:0f:fe:cb:07:fd:2e:9d:3f:5a:55:2d:47:90:08:
         df:66:81:d8:26:21:8e:29:fd:08:c6:45:ee:ab:15:fe:48:56:
         b5:ea:ca:18:0b:09:55:9b:5f:03:7c:94:8e:4c:55:63:21:66:
         77:85:c1:03:df:f1:06:50:05:80:a1:82:f5:ca:07:09:e5:13:
         66:d4:ed:1f:17:83:ce:d4:48:88:52:c5:47:fe:35:a7:29:4b:
         67:23:9a:2b:b3:fb:90:74:d4:17:77:60:d2:27:ee:f4:58:f9:
         15:e5:e1:aa:78:51:56:4c:72:34:c3:fa:11:e3:88:48:3a:0b:
         b7:d1:c5:92:4b:1a:44:45:88:30:50:69:f5:3f:27:cf:a3:e8:
         45:3f:23:92:e8:38:15:08:38:57:85:62:30:b6:22:25:32:5a:
         07:bc:5e:b9:e2:11:5c:be:74:73:94:0f:a8:89:6a:79:86:c1:
         e6:d0:5f:51:52:c9:29:49:33:a1:ee:88:4d:29:3f:54:ea:c0:
         35:f5:87:9a:f3:eb:aa:5a:44:5c:2b:f8:2d:ca:4d:2e:63:07:
         d5:ba:f9:6b:3a:b6:7f:71:f9:d9:ab:ac:a7:5f:a8:ec:cc:41:
         d5:8c:18:43:99:e1:aa:b9:18:8c:93:00:fd:e4:92:5f:1a:fe:
         9f:8d:09:6d:3c:eb:c5:e9:6a:dd:ef:d9:04:3c:51:e0:3e:47:
         ab:63:ec:43:80:a3:33:79:68:0b:be:7c:51:b0:df:75:96:2c:
         28:53:ae:92:e1:f1:75:fa:c3:cb:11:d4:93:23:ec:62:aa:d1:
         a6:af:bd:56:05:07:ae:85:ff:7e:dc:f7:a8:28:70:ca:6a:ae:
         30:0d:7b:05:d2:7d:87:7a:4f:8c:7b:f9:cf:0d:23:88:74:fd:
         86:aa:03:07:91:c6:35:ea:36:d0:dd:90:32:fb:af:57:f8:6e:
         2d:1c:eb:e8:99:83:38:8a:7f:4d:5e:9b:6f:68:c1:5f:1d:2b:
         5f:70:ab:d0:f8:8b:c5:99:53:5b:16:f5:2e:5c:01:39:19:18:
         ea:93:cc:cd:46:6f:0a:6c:d2:47:58:ee:3a:77:f3:17:95:c0:
         4f:51:0e:1f:5d:7c:db:c7
-----BEGIN CERTIFICATE-----
MIIFaTCCA1GgAwIBAgIBCDANBgkqhkiG9w0BAQsFADCBnzELMAkGA1UEBhMCVVMx
DjAMBgNVBAgMBVRleGFzMQ8wDQYDVQQHDAZBdXN0aW4xFzAVBgNVBAoMDkxpbnV4
Rm9ySGVhbHRoMREwDwYDVQQLDAhIZWFsdGhPUzEbMBkGA1UEAwwSbGludXhmb3Jo
ZWFsdGgub3JnMSYwJAYJKoZIhvcNAQkBFhdpbmZvQGxpbnV4Zm9yaGVhbHRoLm9y
ZzAeFw0yMDExMzAxNzE2MDlaFw0yMzA4MjcxNzE2MDlaMHcxCzAJBgNVBAYTAlVT
MQ4wDAYDVQQIDAVUZXhhczEPMA0GA1UEBwwGQXVzdGluMRcwFQYDVQQKDA5MaW51
eEZvckhlYWx0aDERMA8GA1UECwwISGVhbHRoT1MxGzAZBgNVBAMMEmxpbnV4Zm9y
aGVhbHRoLm9yZzCCASIwDQYJKoZIhvcNAQEBBQADggEPADCCAQoCggEBAPCmPRcZ
o3xRvVl0FvZ+nVzfV+IoOJpPaSnBhYCJZGTmhYehtyhMNH9t0gGiw/q0/pBHuxsq
8QR07kSz8Lmi6hlDBMTRa3ZBmCoKULnONN8K+faZfMQj2pBT5BZUk9CC3GQcO+m+
3wMHDCY/oqYnpaRchqJKa0Px7ossDCA0Qzresotc0wIMncDpKl6wPF5yyqdXoeIV
HARaEcFCj1IyyHViL7aW/efYoYOc/33DjNuhDLB3bpNPbU+whMufVwHlJvi6I4hD
Fe1wbLoJqZSKl3Kpn/OFEYbB9ca2kbHV3VgJY9bxAYzsmNnLPdhsY9/VDOJFohPl
bt4LaDGJKVRIBdkCAwEAAaOB1jCB0zAdBgNVHQ4EFgQUW4w7MukJH6psuYn1j6+p
JztCddQwHwYDVR0jBBgwFoAUPUXJaHe7ZnV1vT4qv7A437HPfSUwCQYDVR0TBAIw
ADALBgNVHQ8EBAMCBaAwLAYJYIZIAYb4QgENBB8WHU9wZW5TU0wgR2VuZXJhdGVk
IENlcnRpZmljYXRlMB0GA1UdJQQWMBQGCCsGAQUFBwMCBggrBgEFBQcDATAsBgNV
HREEJTAjhwR/AAABhxAAAAAAAAAAAAAAAAAAAAABgglsb2NhbGhvc3QwDQYJKoZI
hvcNAQELBQADggIBACqqNEbHu3waDDAcEweNiTGEC5gmwPM05OSNZGBJsWLG4mUt
TzOzOaQVgklmiM80bluhb84IFQGqBkUtYLLSrTCsDVJ+iNzpj0gFH6/TGQ8Ci+8+
h8cVvIIioF10xlcP/ssH/S6dP1pVLUeQCN9mgdgmIY4p/QjGRe6rFf5IVrXqyhgL
CVWbXwN8lI5MVWMhZneFwQPf8QZQBYChgvXKBwnlE2bU7R8Xg87USIhSxUf+Nacp
S2cjmiuz+5B01Bd3YNIn7vRY+RXl4ap4UVZMcjTD+hHjiEg6C7fRxZJLGkRFiDBQ
afU/J8+j6EU/I5LoOBUIOFeFYjC2IiUyWge8XrniEVy+dHOUD6iJanmGwebQX1FS
ySlJM6HuiE0pP1TqwDX1h5rz66paRFwr+C3KTS5jB9W6+Ws6tn9x+dmrrKdfqOzM
QdWMGEOZ4aq5GIyTAP3kkl8a/p+NCW0868Xpat3v2QQ8UeA+R6tj7EOAozN5aAu+
fFGw33WWLChTrpLh8XX6w8sR1JMj7GKq0aavvVYFB66F/37c96gocMpqrjANewXS
fYd6T4x7+c8NI4h0/YaqAweRxjXqNtDdkDL7r1f4bi0c6+iZgziKf01em29owV8d
K19wq9D4i8WZU1sW9S5cATkZGOqTzM1Gbwps0kdY7jp38xeVwE9RDh9dfNvH
-----END CERTIFICATE-----
