Certificate:
    Data:
        Version: 3 (0x2)
        Serial Number: 6 (0x6)
    Signature Algorithm: sha256WithRSAEncryption
        Issuer: C=US, ST=Texas, L=Austin, O=LinuxForHealth, OU=HealthOS, CN=linuxforhealth.org/emailAddress=info@linuxforhealth.org
        Validity
            Not Before: Nov 30 17:16:09 2020 GMT
            Not After : Aug 27 17:16:09 2023 GMT
        Subject: C=US, ST=Texas, L=Austin, O=LinuxForHealth, OU=HealthOS, CN=linuxforhealth.org
        Subject Public Key Info:
            Public Key Algorithm: rsaEncryption
                Public-Key: (2048 bit)
                Modulus:
                    00:c3:2f:d7:bd:df:2e:a0:8f:68:f3:14:0d:7d:dd:
                    60:ab:25:ad:0a:47:eb:9f:e8:5a:45:42:c4:14:e2:
                    e9:f6:5d:b1:e5:30:d2:9a:85:f1:4f:60:75:c6:f0:
                    a1:3b:00:a8:d2:75:c0:6d:d9:ba:62:11:f5:d4:19:
                    ca:53:ca:21:75:69:86:56:3e:d8:4f:dd:24:7d:56:
                    61:a6:15:45:6a:76:ef:3e:a7:ff:0b:be:cf:31:7d:
                    52:f8:af:a2:ca:21:e7:b2:eb:57:5d:e6:c2:1d:bb:
                    f1:e6:5c:07:b4:a6:4a:ad:a4:fc:2c:80:1d:c3:82:
                    c4:66:6b:6d:9c:07:e5:9d:95:2f:1c:50:10:c7:3c:
                    72:cf:42:33:7d:d6:37:8a:a5:39:88:c0:e8:f0:bd:
                    cb:a5:c6:9e:29:f7:23:2a:5a:86:33:92:5e:a6:e0:
                    ce:56:e0:20:ea:dd:05:13:b1:cc:dc:28:16:0a:51:
                    0e:b7:c6:d7:65:85:d1:6f:f8:ed:ef:95:77:f8:db:
                    cf:8b:71:22:5f:72:2e:4e:48:90:81:ff:d4:44:4f:
                    fa:2a:e6:aa:b9:a9:ac:ad:77:90:61:f2:fa:bb:7b:
                    13:9f:98:e8:85:ae:0b:58:c4:e7:f8:07:02:af:ee:
                    07:e2:e4:25:17:bf:28:f2:75:44:36:df:9e:74:a9:
                    62:c5
                Exponent: 65537 (0x10001)
        X509v3 extensions:
            X509v3 Subject Key Identifier: 
                92:71:C8:8B:1B:7C:78:DD:36:C5:7D:3D:7E:57:8D:D8:15:A1:81:E0
            X509v3 Authority Key Identifier: 
                keyid:3D:45:C9:68:77:BB:66:75:75:BD:3E:2A:BF:B0:38:DF:B1:CF:7D:25

            X509v3 Basic Constraints: 
                CA:FALSE
            X509v3 Key Usage: 
                Digital Signature, Key Encipherment
            Netscape Comment: 
                OpenSSL Generated Certificate
            X509v3 Extended Key Usage: 
                TLS Web Client Authentication, TLS Web Server Authentication
            X509v3 Subject Alternative Name: 
                IP Address:127.0.0.1, IP Address:0:0:0:0:0:0:0:1, DNS:localhost
    Signature Algorithm: sha256WithRSAEncryption
         3f:cf:e9:c1:b1:d2:7f:f1:aa:ba:f1:aa:cd:91:ed:25:83:9e:
         bd:b9:7b:5d:a7:a4:6b:00:9d:b8:4d:93:6c:b7:df:5f:53:6e:
         5a:bf:a0:e7:62:1d:d5:c2:cf:a1:e9:9b:3e:5e:db:85:53:20:
         2c:5d:5c:aa:78:d0:8a:16:d8:c2:4e:47:7a:de:b3:37:2f:bb:
         1d:db:ba:7a:bf:8c:99:bb:ec:68:8c:1d:c1:0d:33:98:c4:0e:
         3f:ee:3f:bb:5c:b6:a5:b0:81:63:ca:54:87:36:bd:ff:01:6b:
         14:68:62:5c:37:c7:b6:8b:03:3b:3e:94:f7:5b:dd:57:1f:de:
         7c:6e:d2:e8:a3:10:b7:19:f1:13:dd:09:5f:e4:82:7c:15:34:
         cb:57:af:12:19:72:89:5a:16:1a:48:61:f7:62:a3:79:53:7d:
         62:34:1d:b9:ba:96:3e:89:d8:b3:3f:30:e6:ac:6d:51:83:e4:
         d8:07:e3:dd:0d:d4:27:5e:67:65:22:c0:c4:62:42:e2:de:5b:
         cd:c2:8c:34:99:c5:49:5f:95:5b:b1:a4:d3:03:fb:c6:46:a4:
         88:61:ae:09:90:9c:55:be:2d:33:3b:d0:a4:aa:08:43:e1:c8:
         76:95:a6:f0:c5:d9:7f:5d:96:96:19:64:93:4a:60:4a:87:78:
         a1:fe:bb:68:9f:f7:59:22:3e:f7:fc:cf:f5:2e:c0:dc:56:2f:
         fb:77:b2:05:e7:7d:0d:1c:95:4d:0d:e3:29:a7:cf:f7:40:e8:
         dc:2e:9b:24:bd:4d:db:b9:ce:d4:e3:35:96:b2:fb:7a:5d:e3:
         13:ce:c7:93:28:2c:df:1a:09:4d:83:75:6c:d3:7a:8b:eb:64:
         3b:be:98:0e:2c:90:f9:38:09:3c:80:62:df:a2:70:3a:25:40:
         a5:09:ea:ed:8e:ef:de:99:f6:96:14:b6:8f:11:0f:3d:e3:fe:
         c5:22:77:2e:c0:28:64:0e:a9:e9:32:aa:a5:3c:e8:51:bb:c3:
         dc:b7:98:51:f1:4a:5e:e7:4c:04:60:da:ea:05:7f:e0:5e:0c:
         9b:47:1b:42:7e:7b:e2:77:f1:8a:af:0a:95:6a:97:56:24:5c:
         d1:68:c1:83:cf:b1:1e:19:2f:8f:6f:da:d0:12:28:c8:bb:dc:
         4d:cb:04:9a:1d:ac:a1:3b:5a:d7:f3:a3:5f:6a:7b:1a:fc:48:
         ed:e9:bb:50:ef:e0:ea:91:b1:31:49:6c:7f:dd:b0:53:a0:64:
         6e:b4:20:2c:73:7f:15:35:cf:5f:f5:d4:04:d8:0d:59:1a:5b:
         f2:27:1b:64:cf:a7:8a:fb:82:f4:a0:5c:c0:95:ae:3e:0d:4d:
         c4:31:0c:73:42:83:9f:dc
-----BEGIN CERTIFICATE-----
MIIFaTCCA1GgAwIBAgIBBjANBgkqhkiG9w0BAQsFADCBnzELMAkGA1UEBhMCVVMx
DjAMBgNVBAgMBVRleGFzMQ8wDQYDVQQHDAZBdXN0aW4xFzAVBgNVBAoMDkxpbnV4
Rm9ySGVhbHRoMREwDwYDVQQLDAhIZWFsdGhPUzEbMBkGA1UEAwwSbGludXhmb3Jo
ZWFsdGgub3JnMSYwJAYJKoZIhvcNAQkBFhdpbmZvQGxpbnV4Zm9yaGVhbHRoLm9y
ZzAeFw0yMDExMzAxNzE2MDlaFw0yMzA4MjcxNzE2MDlaMHcxCzAJBgNVBAYTAlVT
MQ4wDAYDVQQIDAVUZXhhczEPMA0GA1UEBwwGQXVzdGluMRcwFQYDVQQKDA5MaW51
eEZvckhlYWx0aDERMA8GA1UECwwISGVhbHRoT1MxGzAZBgNVBAMMEmxpbnV4Zm9y
aGVhbHRoLm9yZzCCASIwDQYJKoZIhvcNAQEBBQADggEPADCCAQoCggEBAMMv173f
LqCPaPMUDX3dYKslrQpH65/oWkVCxBTi6fZdseUw0pqF8U9gdcbwoTsAqNJ1wG3Z
umIR9dQZylPKIXVphlY+2E/dJH1WYaYVRWp27z6n/wu+zzF9Uvivosoh57LrV13m
wh278eZcB7SmSq2k/CyAHcOCxGZrbZwH5Z2VLxxQEMc8cs9CM33WN4qlOYjA6PC9
y6XGnin3IypahjOSXqbgzlbgIOrdBROxzNwoFgpRDrfG12WF0W/47e+Vd/jbz4tx
Il9yLk5IkIH/1ERP+irmqrmprK13kGHy+rt7E5+Y6IWuC1jE5/gHAq/uB+LkJRe/
KPJ1RDbfnnSpYsUCAwEAAaOB1jCB0zAdBgNVHQ4EFgQUknHIixt8eN02xX09fleN
2BWhgeAwHwYDVR0jBBgwFoAUPUXJaHe7ZnV1vT4qv7A437HPfSUwCQYDVR0TBAIw
ADALBgNVHQ8EBAMCBaAwLAYJYIZIAYb4QgENBB8WHU9wZW5TU0wgR2VuZXJhdGVk
IENlcnRpZmljYXRlMB0GA1UdJQQWMBQGCCsGAQUFBwMCBggrBgEFBQcDATAsBgNV
HREEJTAjhwR/AAABhxAAAAAAAAAAAAAAAAAAAAABgglsb2NhbGhvc3QwDQYJKoZI
hvcNAQELBQADggIBAD/P6cGx0n/xqrrxqs2R7SWDnr25e12npGsAnbhNk2y3319T
blq/oOdiHdXCz6Hpmz5e24VTICxdXKp40IoW2MJOR3reszcvux3bunq/jJm77GiM
HcENM5jEDj/uP7tctqWwgWPKVIc2vf8BaxRoYlw3x7aLAzs+lPdb3Vcf3nxu0uij
ELcZ8RPdCV/kgnwVNMtXrxIZcolaFhpIYfdio3lTfWI0Hbm6lj6J2LM/MOasbVGD
5NgH490N1CdeZ2UiwMRiQuLeW83CjDSZxUlflVuxpNMD+8ZGpIhhrgmQnFW+LTM7
0KSqCEPhyHaVpvDF2X9dlpYZZJNKYEqHeKH+u2if91kiPvf8z/UuwNxWL/t3sgXn
fQ0clU0N4ymnz/dA6NwumyS9Tdu5ztTjNZay+3pd4xPOx5MoLN8aCU2DdWzTeovr
ZDu+mA4skPk4CTyAYt+icDolQKUJ6u2O796Z9pYUto8RDz3j/sUidy7AKGQOqeky
qqU86FG7w9y3mFHxSl7nTARg2uoFf+BeDJtHG0J+e+J38YqvCpVql1YkXNFowYPP
sR4ZL49v2tASKMi73E3LBJodrKE7Wtfzo19qexr8SO3pu1Dv4OqRsTFJbH/dsFOg
ZG60ICxzfxU1z1/11ATYDVkaW/InG2TPp4r7gvSgXMCVrj4NTcQxDHNCg5/c
-----END CERTIFICATE-----
