Certificate:
    Data:
        Version: 3 (0x2)
        Serial Number: 26 (0x1a)
    Signature Algorithm: sha256WithRSAEncryption
        Issuer: C=US, ST=Texas, L=Austin, O=LinuxForHealth, OU=HealthOS, CN=linuxforhealth.org/emailAddress=info@linuxforhealth.org
        Validity
            Not Before: Dec  1 17:43:57 2020 GMT
            Not After : Aug 28 17:43:57 2023 GMT
        Subject: C=US, ST=Texas, L=Austin, O=LinuxForHealth, OU=HealthOS, CN=linuxforhealth.org
        Subject Public Key Info:
            Public Key Algorithm: rsaEncryption
                Public-Key: (2048 bit)
                Modulus:
                    00:f0:5f:3a:30:aa:d7:98:fe:31:3a:c0:c6:12:44:
                    04:c2:6e:86:07:2b:98:b0:ad:05:7d:5c:c5:5f:5b:
                    f5:a4:a1:02:1b:6e:da:b8:76:08:7c:11:5b:cf:32:
                    35:35:24:f6:27:fd:74:c4:26:68:a4:f1:87:cd:66:
                    85:f6:b2:17:8d:80:53:5f:32:20:f0:03:27:c2:b7:
                    26:4e:20:f2:7d:3d:a5:bc:cf:c4:2c:47:28:67:ef:
                    01:97:aa:5a:ac:1e:9f:df:7c:c1:56:95:f6:4e:3c:
                    25:74:54:8b:f6:fb:2a:b3:49:a6:56:90:b1:84:96:
                    9b:18:7e:e1:75:c7:8a:18:df:64:e2:1f:9a:0c:69:
                    63:df:e5:16:07:04:21:e0:6c:ae:f9:08:8b:08:e6:
                    92:cf:2f:77:2b:33:29:6c:77:aa:6f:bc:19:c3:78:
                    4f:ca:24:e0:d1:48:df:9c:25:3d:61:3b:95:94:4e:
                    cb:95:ed:2b:40:09:0e:d0:36:a4:e5:0f:ff:f7:c1:
                    07:99:72:65:eb:82:0c:b3:0d:56:15:37:90:e9:f2:
                    bb:92:6a:40:bc:af:ab:92:32:c8:bb:5c:42:fb:cd:
                    7d:42:5b:53:75:9a:49:c6:b1:9a:9f:7e:aa:fa:d1:
                    78:01:a2:6c:13:1e:f8:d8:0e:0e:7f:f3:f7:25:58:
                    e3:d5
                Exponent: 65537 (0x10001)
        X509v3 extensions:
            X509v3 Subject Key Identifier: 
                8C:3A:11:FC:51:CF:C9:52:61:C3:C6:83:21:CE:9C:94:A8:D5:D0:48
            X509v3 Authority Key Identifier: 
                keyid:C5:2C:ED:BA:36:FC:E7:73:93:5D:C3:8F:92:28:D2:1C:F3:90:2F:A5

            X509v3 Basic Constraints: 
                CA:FALSE
            X509v3 Key Usage: 
                Digital Signature, Key Encipherment
            Netscape Comment: 
                OpenSSL Generated Certificate
            X509v3 Extended Key Usage: 
                TLS Web Client Authentication, TLS Web Server Authentication
            X509v3 Subject Alternative Name: 
                IP Address:127.0.0.1, IP Address:172.18.0.8, DNS:localhost, DNS:lfh, DNS:compose_lfh_1
    Signature Algorithm: sha256WithRSAEncryption
         18:92:dd:b6:57:87:72:be:cf:33:50:d1:39:32:63:70:ad:20:
         af:4d:4a:0b:13:aa:76:43:af:f0:ee:6b:42:4f:bc:cd:0f:14:
         a0:c5:9f:40:bb:44:a2:cc:cd:68:ba:09:98:61:52:e4:e1:00:
         2f:b2:a7:75:0f:a7:78:46:fe:da:6c:6e:c2:60:7c:7e:cc:2f:
         bf:65:ae:8a:6e:45:7d:2f:a2:4a:88:1d:07:0c:16:52:46:fa:
         35:b0:68:6f:a0:5d:2e:af:ad:47:d3:98:5c:bc:0b:c5:54:73:
         a2:23:2e:e9:3a:86:c6:71:50:14:72:78:43:29:0e:6c:11:cd:
         13:58:14:cc:9c:5b:ef:6c:05:bf:63:57:49:24:6b:f0:a5:c7:
         ec:74:31:9d:ba:b2:2e:4a:43:e6:75:97:f7:bd:b5:23:f5:7c:
         96:ee:9d:e0:11:9c:78:72:47:7a:4f:f1:ed:1b:fb:f8:03:1e:
         d4:41:11:e9:de:2e:0c:38:97:73:42:02:c6:86:69:5c:71:b0:
         e2:08:bf:e1:fa:68:e3:d8:ff:59:83:7f:e2:fa:a7:73:d2:77:
         42:cb:90:c9:84:c5:ba:e8:07:81:61:71:ac:1d:31:e8:c8:f4:
         92:8f:44:69:d8:68:e6:4a:13:82:f2:a3:f3:21:6e:e6:9d:fb:
         e7:f7:ff:37:b4:6a:67:18:3d:4a:01:6f:1b:34:61:1f:f1:41:
         f7:7e:26:78:11:5c:b6:2b:86:b4:12:d5:93:bc:81:c1:17:82:
         42:63:8b:d7:0e:6a:55:bf:0e:3f:40:03:01:2f:86:ce:47:3c:
         78:df:92:22:47:b1:39:ff:e4:95:cd:d8:be:05:b6:85:ca:c6:
         a1:a3:19:4c:e2:fc:63:9f:17:87:3c:f6:0e:f0:1f:8d:72:d6:
         17:53:4c:f0:11:7e:62:14:78:8c:11:fa:ee:dd:d2:18:4f:99:
         d9:55:35:22:03:2f:e0:44:95:8a:a2:5e:ee:25:fd:da:fc:56:
         57:7d:69:55:8d:4f:4c:d4:de:11:7c:6f:22:28:f7:7d:97:0f:
         92:b6:17:45:ae:da:bf:b8:dc:fa:da:6e:55:fe:44:9e:cc:af:
         48:7b:d0:1f:67:5d:05:85:13:a0:93:c7:d9:23:7c:b1:19:b5:
         10:6b:1a:c7:9f:52:65:09:ee:33:95:e3:d0:a3:8c:ae:c9:21:
         2b:62:d7:50:56:09:c4:e1:da:0b:36:c7:90:31:9b:fc:74:07:
         52:d4:c7:3f:7a:e6:0f:57:34:5a:e5:f0:08:69:e3:b6:6f:bb:
         8d:fe:f9:b0:28:3e:73:c8:80:1d:7b:3f:8e:64:cd:39:2c:ad:
         c0:35:a8:ea:2f:1b:09:dc
-----BEGIN CERTIFICATE-----
MIIFcTCCA1mgAwIBAgIBGjANBgkqhkiG9w0BAQsFADCBnzELMAkGA1UEBhMCVVMx
DjAMBgNVBAgMBVRleGFzMQ8wDQYDVQQHDAZBdXN0aW4xFzAVBgNVBAoMDkxpbnV4
Rm9ySGVhbHRoMREwDwYDVQQLDAhIZWFsdGhPUzEbMBkGA1UEAwwSbGludXhmb3Jo
ZWFsdGgub3JnMSYwJAYJKoZIhvcNAQkBFhdpbmZvQGxpbnV4Zm9yaGVhbHRoLm9y
ZzAeFw0yMDEyMDExNzQzNTdaFw0yMzA4MjgxNzQzNTdaMHcxCzAJBgNVBAYTAlVT
MQ4wDAYDVQQIDAVUZXhhczEPMA0GA1UEBwwGQXVzdGluMRcwFQYDVQQKDA5MaW51
eEZvckhlYWx0aDERMA8GA1UECwwISGVhbHRoT1MxGzAZBgNVBAMMEmxpbnV4Zm9y
aGVhbHRoLm9yZzCCASIwDQYJKoZIhvcNAQEBBQADggEPADCCAQoCggEBAPBfOjCq
15j+MTrAxhJEBMJuhgcrmLCtBX1cxV9b9aShAhtu2rh2CHwRW88yNTUk9if9dMQm
aKTxh81mhfayF42AU18yIPADJ8K3Jk4g8n09pbzPxCxHKGfvAZeqWqwen998wVaV
9k48JXRUi/b7KrNJplaQsYSWmxh+4XXHihjfZOIfmgxpY9/lFgcEIeBsrvkIiwjm
ks8vdyszKWx3qm+8GcN4T8ok4NFI35wlPWE7lZROy5XtK0AJDtA2pOUP//fBB5ly
ZeuCDLMNVhU3kOnyu5JqQLyvq5IyyLtcQvvNfUJbU3WaScaxmp9+qvrReAGibBMe
+NgODn/z9yVY49UCAwEAAaOB3jCB2zAdBgNVHQ4EFgQUjDoR/FHPyVJhw8aDIc6c
lKjV0EgwHwYDVR0jBBgwFoAUxSztujb853OTXcOPkijSHPOQL6UwCQYDVR0TBAIw
ADALBgNVHQ8EBAMCBaAwLAYJYIZIAYb4QgENBB8WHU9wZW5TU0wgR2VuZXJhdGVk
IENlcnRpZmljYXRlMB0GA1UdJQQWMBQGCCsGAQUFBwMCBggrBgEFBQcDATA0BgNV
HREELTArhwR/AAABhwSsEgAIgglsb2NhbGhvc3SCA2xmaIINY29tcG9zZV9sZmhf
MTANBgkqhkiG9w0BAQsFAAOCAgEAGJLdtleHcr7PM1DROTJjcK0gr01KCxOqdkOv
8O5rQk+8zQ8UoMWfQLtEoszNaLoJmGFS5OEAL7KndQ+neEb+2mxuwmB8fswvv2Wu
im5FfS+iSogdBwwWUkb6NbBob6BdLq+tR9OYXLwLxVRzoiMu6TqGxnFQFHJ4QykO
bBHNE1gUzJxb72wFv2NXSSRr8KXH7HQxnbqyLkpD5nWX9721I/V8lu6d4BGceHJH
ek/x7Rv7+AMe1EER6d4uDDiXc0ICxoZpXHGw4gi/4fpo49j/WYN/4vqnc9J3QsuQ
yYTFuugHgWFxrB0x6Mj0ko9Eadho5koTgvKj8yFu5p375/f/N7RqZxg9SgFvGzRh
H/FB934meBFctiuGtBLVk7yBwReCQmOL1w5qVb8OP0ADAS+Gzkc8eN+SIkexOf/k
lc3YvgW2hcrGoaMZTOL8Y58Xhzz2DvAfjXLWF1NM8BF+YhR4jBH67t3SGE+Z2VU1
IgMv4ESViqJe7iX92vxWV31pVY1PTNTeEXxvIij3fZcPkrYXRa7av7jc+tpuVf5E
nsyvSHvQH2ddBYUToJPH2SN8sRm1EGsax59SZQnuM5Xj0KOMrskhK2LXUFYJxOHa
CzbHkDGb/HQHUtTHP3rmD1c0WuXwCGnjtm+7jf75sCg+c8iAHXs/jmTNOSytwDWo
6i8bCdw=
-----END CERTIFICATE-----
