Certificate:
    Data:
        Version: 3 (0x2)
        Serial Number: 29 (0x1d)
    Signature Algorithm: sha256WithRSAEncryption
        Issuer: C=US, ST=Texas, L=Austin, O=LinuxForHealth, OU=HealthOS, CN=linuxforhealth.org/emailAddress=info@linuxforhealth.org
        Validity
            Not Before: Dec  2 16:14:01 2020 GMT
            Not After : Aug 29 16:14:01 2023 GMT
        Subject: C=US, ST=Texas, L=Austin, O=LinuxForHealth, OU=HealthOS, CN=linuxforhealth.org
        Subject Public Key Info:
            Public Key Algorithm: rsaEncryption
                Public-Key: (2048 bit)
                Modulus:
                    00:af:00:da:f7:ec:ec:a1:ec:59:ff:ec:ce:41:c8:
                    db:dd:75:39:11:97:f7:d1:af:41:ee:97:f4:f4:c5:
                    b1:f8:eb:fb:66:72:c4:40:be:9b:43:6a:81:19:19:
                    d0:5e:1f:0c:4b:76:a6:26:91:55:e2:95:99:35:56:
                    a6:d2:4d:c1:e0:ad:df:20:0b:57:12:5b:89:24:d2:
                    14:00:d5:3d:53:05:cf:78:50:69:8e:65:a6:55:65:
                    f0:c3:3e:fb:e0:70:78:1c:0f:f3:39:47:9c:f6:0e:
                    f8:1e:be:9b:17:fb:98:fe:c7:f5:ed:38:c8:27:18:
                    01:d2:e5:81:d0:4e:7c:c3:4a:ae:f2:fa:21:1a:d0:
                    33:e0:b5:f8:ca:57:e5:e7:f5:6e:01:23:13:e1:da:
                    3b:c5:eb:4c:77:81:66:c3:fe:3f:49:11:fa:85:39:
                    03:f2:98:a5:00:ad:72:00:fa:95:55:20:59:7f:02:
                    49:4f:cb:c4:55:e0:c8:c5:11:f3:8d:c5:9b:de:36:
                    32:17:d7:51:f5:a0:74:44:63:69:4a:5c:86:cf:11:
                    6f:f7:02:8c:f6:87:84:d1:81:2e:84:d6:3e:f7:7e:
                    c3:c2:28:95:9d:6f:90:6c:46:69:04:97:ff:19:90:
                    06:7d:82:88:87:e1:80:b9:b0:06:93:03:2c:98:b5:
                    63:73
                Exponent: 65537 (0x10001)
        X509v3 extensions:
            X509v3 Subject Key Identifier: 
                BB:1F:F7:13:D2:65:65:19:B4:EB:05:8C:7F:6D:E7:0B:C6:85:F9:46
            X509v3 Authority Key Identifier: 
                keyid:22:75:B1:88:7D:08:71:6D:98:A5:53:31:5A:A7:53:39:A9:EE:71:03

            X509v3 Basic Constraints: 
                CA:FALSE
            X509v3 Key Usage: 
                Digital Signature, Key Encipherment
            Netscape Comment: 
                OpenSSL Generated Certificate
            X509v3 Extended Key Usage: 
                TLS Web Client Authentication, TLS Web Server Authentication
            X509v3 Subject Alternative Name: 
                IP Address:127.0.0.1, IP Address:172.18.0.8, DNS:localhost, DNS:lfh, DNS:compose_lfh_1
    Signature Algorithm: sha256WithRSAEncryption
         26:d1:1a:21:75:53:ed:96:64:6b:c6:04:0e:97:81:71:09:f6:
         2b:b6:8a:16:7c:11:00:2a:44:3a:7f:f1:41:77:f8:72:45:8c:
         46:04:a5:b7:62:58:a3:fd:11:49:6f:4c:1c:73:26:a9:14:a0:
         cc:12:56:b0:44:51:4b:e9:e9:46:f5:4e:c4:49:c3:16:61:f3:
         30:03:44:49:27:13:f7:c8:bb:56:0c:0e:fd:fc:7d:4f:af:04:
         07:ad:02:ab:f8:42:ea:35:1e:da:ed:c1:42:95:ef:63:a1:05:
         23:f6:ff:77:81:94:7f:5d:02:94:56:e0:11:c4:3e:68:ab:35:
         f7:0c:0b:0a:7c:0b:c4:56:99:eb:e3:a8:96:ee:85:4e:a2:c4:
         57:0b:12:1e:02:23:a8:39:b6:bf:d4:b2:c3:01:20:d5:fa:28:
         9e:b1:3a:3b:16:45:53:50:6b:92:f3:31:84:3e:13:9f:8c:8a:
         03:b9:8e:72:16:04:40:58:41:36:11:1a:b6:9e:ee:c0:f2:20:
         59:08:29:28:a3:78:f4:32:bb:c2:30:a7:d9:3f:35:07:91:27:
         d0:28:4c:2f:26:9a:b6:de:37:08:34:2e:31:99:e5:f7:18:53:
         6a:00:e8:5c:b0:ee:35:76:03:f3:94:7b:5f:07:e8:fe:4a:c1:
         53:d5:cc:7b:b1:51:21:d1:d8:9b:56:1f:47:72:d6:3d:75:e5:
         5c:ad:89:ac:e1:8f:04:69:b9:ff:fb:4f:03:35:aa:0d:41:80:
         a6:64:bc:dc:2b:82:78:49:4d:5b:17:f0:9d:84:d9:1a:51:9f:
         40:8f:b2:10:76:a5:c9:3d:db:7c:23:a9:68:1d:80:06:8c:50:
         18:88:1b:e3:ee:05:29:2f:71:a7:53:5c:48:dc:03:68:01:b6:
         4b:ae:e3:55:bf:f8:22:65:d8:54:02:b1:d7:a9:31:3d:5d:3c:
         e1:f1:72:8b:43:47:78:a6:cd:cc:ab:b2:74:42:75:be:83:e7:
         7e:f9:50:6f:a1:10:00:7c:50:55:71:c2:12:2b:32:65:31:9d:
         0a:7b:55:6f:1c:4d:a5:db:7e:26:9d:fb:87:63:29:2f:e8:5b:
         95:35:77:62:6a:11:1a:7f:0a:25:26:23:83:78:42:99:5f:0e:
         5a:3e:ca:4f:f3:c6:d7:27:91:f2:95:12:b7:8c:c7:88:8e:ee:
         e8:b7:3b:89:7c:99:15:ec:ed:90:d6:d8:45:1d:00:93:57:c2:
         05:fd:c9:b9:76:60:ee:b5:5b:d2:1a:cb:ab:cf:f9:c8:ed:46:
         af:80:be:65:3e:ee:3b:23:4d:62:b2:a1:93:9e:bd:ba:50:a7:
         16:e8:64:61:fb:5b:c1:c0
-----BEGIN CERTIFICATE-----
MIIFcTCCA1mgAwIBAgIBHTANBgkqhkiG9w0BAQsFADCBnzELMAkGA1UEBhMCVVMx
DjAMBgNVBAgMBVRleGFzMQ8wDQYDVQQHDAZBdXN0aW4xFzAVBgNVBAoMDkxpbnV4
Rm9ySGVhbHRoMREwDwYDVQQLDAhIZWFsdGhPUzEbMBkGA1UEAwwSbGludXhmb3Jo
ZWFsdGgub3JnMSYwJAYJKoZIhvcNAQkBFhdpbmZvQGxpbnV4Zm9yaGVhbHRoLm9y
ZzAeFw0yMDEyMDIxNjE0MDFaFw0yMzA4MjkxNjE0MDFaMHcxCzAJBgNVBAYTAlVT
MQ4wDAYDVQQIDAVUZXhhczEPMA0GA1UEBwwGQXVzdGluMRcwFQYDVQQKDA5MaW51
eEZvckhlYWx0aDERMA8GA1UECwwISGVhbHRoT1MxGzAZBgNVBAMMEmxpbnV4Zm9y
aGVhbHRoLm9yZzCCASIwDQYJKoZIhvcNAQEBBQADggEPADCCAQoCggEBAK8A2vfs
7KHsWf/szkHI2911ORGX99GvQe6X9PTFsfjr+2ZyxEC+m0NqgRkZ0F4fDEt2piaR
VeKVmTVWptJNweCt3yALVxJbiSTSFADVPVMFz3hQaY5lplVl8MM+++BweBwP8zlH
nPYO+B6+mxf7mP7H9e04yCcYAdLlgdBOfMNKrvL6IRrQM+C1+MpX5ef1bgEjE+Ha
O8XrTHeBZsP+P0kR+oU5A/KYpQCtcgD6lVUgWX8CSU/LxFXgyMUR843Fm942MhfX
UfWgdERjaUpchs8Rb/cCjPaHhNGBLoTWPvd+w8IolZ1vkGxGaQSX/xmQBn2CiIfh
gLmwBpMDLJi1Y3MCAwEAAaOB3jCB2zAdBgNVHQ4EFgQUux/3E9JlZRm06wWMf23n
C8aF+UYwHwYDVR0jBBgwFoAUInWxiH0IcW2YpVMxWqdTOanucQMwCQYDVR0TBAIw
ADALBgNVHQ8EBAMCBaAwLAYJYIZIAYb4QgENBB8WHU9wZW5TU0wgR2VuZXJhdGVk
IENlcnRpZmljYXRlMB0GA1UdJQQWMBQGCCsGAQUFBwMCBggrBgEFBQcDATA0BgNV
HREELTArhwR/AAABhwSsEgAIgglsb2NhbGhvc3SCA2xmaIINY29tcG9zZV9sZmhf
MTANBgkqhkiG9w0BAQsFAAOCAgEAJtEaIXVT7ZZka8YEDpeBcQn2K7aKFnwRACpE
On/xQXf4ckWMRgSlt2JYo/0RSW9MHHMmqRSgzBJWsERRS+npRvVOxEnDFmHzMANE
SScT98i7VgwO/fx9T68EB60Cq/hC6jUe2u3BQpXvY6EFI/b/d4GUf10ClFbgEcQ+
aKs19wwLCnwLxFaZ6+Oolu6FTqLEVwsSHgIjqDm2v9SywwEg1foonrE6OxZFU1Br
kvMxhD4Tn4yKA7mOchYEQFhBNhEatp7uwPIgWQgpKKN49DK7wjCn2T81B5En0ChM
Lyaatt43CDQuMZnl9xhTagDoXLDuNXYD85R7Xwfo/krBU9XMe7FRIdHYm1YfR3LW
PXXlXK2JrOGPBGm5//tPAzWqDUGApmS83CuCeElNWxfwnYTZGlGfQI+yEHalyT3b
fCOpaB2ABoxQGIgb4+4FKS9xp1NcSNwDaAG2S67jVb/4ImXYVAKx16kxPV084fFy
i0NHeKbNzKuydEJ1voPnfvlQb6EQAHxQVXHCEisyZTGdCntVbxxNpdt+Jp37h2Mp
L+hblTV3YmoRGn8KJSYjg3hCmV8OWj7KT/PG1yeR8pUSt4zHiI7u6Lc7iXyZFezt
kNbYRR0Ak1fCBf3JuXZg7rVb0hrLq8/5yO1Gr4C+ZT7uOyNNYrKhk569ulCnFuhk
YftbwcA=
-----END CERTIFICATE-----
